; Function Attrs: mustprogress uwtable
define void @_ZNK10open_spiel8deep_sea12DeepSeaState8ToStringB5cxx11Ev(ptr dead_on_unwind noalias nonnull writable sret(%"class.std::__cxx11::basic_string") align 8 %0, ptr nocapture noundef nonnull readonly align 8 dereferenceable(160) %1) unnamed_addr #3 align 2 personality ptr @__gxx_personality_v0 {
  tail call void @_ZNSt7__cxx1112basic_stringIcSt11char_traitsIcESaIcEEC1Ev(ptr noundef nonnull align 8 dereferenceable(32) %0) #24
  %3 = getelementptr inbounds nuw i8, ptr %1, i64 60
  %4 = load i32, ptr %3, align 4
  %5 = add nsw i32 %4, 1
  %6 = add nsw i32 %4, 2
  %7 = mul nsw i32 %5, %6
  %8 = sext i32 %7 to i64
  invoke void @_ZNSt7__cxx1112basic_stringIcSt11char_traitsIcESaIcEE7reserveEm(ptr noundef nonnull align 8 dereferenceable(32) %0, i64 noundef %8)
          to label %.preheader22 unwind label %.loopexit.split-lp.loopexit.split-lp

.preheader22:                                     ; preds = %2
  %9 = load i32, ptr %3, align 4
  %.not28 = icmp slt i32 %9, 0
  br i1 %.not28, label %._crit_edge30, label %.preheader.lr.ph

.preheader.lr.ph:                                 ; preds = %.preheader22
  %10 = getelementptr inbounds nuw i8, ptr %1, i64 112
  %11 = getelementptr inbounds nuw i8, ptr %1, i64 116
  %12 = getelementptr inbounds nuw i8, ptr %1, i64 72
  br label %.preheader

.preheader:                                       ; preds = %.preheader.lr.ph, %42
  %13 = phi i32 [ %9, %.preheader.lr.ph ], [ %44, %42 ]
  %.01429 = phi i32 [ 0, %.preheader.lr.ph ], [ %43, %42 ]
  %.not1626 = icmp slt i32 %13, 0
  br i1 %.not1626, label %._crit_edge, label %.lr.ph

.lr.ph:                                           ; preds = %.preheader, %38
  %14 = phi i32 [ %40, %38 ], [ %13, %.preheader ]
  %.027 = phi i32 [ %39, %38 ], [ 0, %.preheader ]
  %15 = load i32, ptr %10, align 8
  %16 = icmp eq i32 %15, %.01429
  %17 = load i32, ptr %11, align 4
  %18 = icmp eq i32 %17, %.027
  %or.cond = select i1 %16, i1 %18, i1 false
  br i1 %or.cond, label %.invoke, label %21

.invoke:                                          ; preds = %.lr.ph, %21
  %19 = phi ptr [ @.str.22, %21 ], [ @.str.21, %.lr.ph ]
  %20 = invoke noundef nonnull align 8 dereferenceable(32) ptr @_ZNSt7__cxx1112basic_stringIcSt11char_traitsIcESaIcEEpLEPKc(ptr noundef nonnull align 8 dereferenceable(32) %0, ptr noundef nonnull %19)
          to label %38 unwind label %.loopexit

.loopexit:                                        ; preds = %.invoke, %23
  %lpad.loopexit = landingpad { ptr, i32 }
          cleanup
  br label %.loopexit.split-lp

.loopexit.split-lp.loopexit:                      ; preds = %._crit_edge
  %lpad.loopexit23 = landingpad { ptr, i32 }
          cleanup
  br label %.loopexit.split-lp

.loopexit.split-lp.loopexit.split-lp:             ; preds = %2
  %lpad.loopexit.split-lp24 = landingpad { ptr, i32 }
          cleanup
  br label %.loopexit.split-lp

.loopexit.split-lp:                               ; preds = %.loopexit.split-lp.loopexit, %.loopexit.split-lp.loopexit.split-lp, %.loopexit
  %lpad.phi = phi { ptr, i32 } [ %lpad.loopexit, %.loopexit ], [ %lpad.loopexit23, %.loopexit.split-lp.loopexit ], [ %lpad.loopexit.split-lp24, %.loopexit.split-lp.loopexit.split-lp ]
  tail call void @_ZNSt7__cxx1112basic_stringIcSt11char_traitsIcESaIcEED1Ev(ptr noundef nonnull align 8 dereferenceable(32) %0) #24
  resume { ptr, i32 } %lpad.phi

21:                                               ; preds = %.lr.ph
  %22 = icmp sge i32 %.01429, %14
  %.not17 = icmp ugt i32 %.027, %.01429
  %or.cond20 = or i1 %.not17, %22
  br i1 %or.cond20, label %.invoke, label %23

23:                                               ; preds = %21
  %24 = mul nsw i32 %14, %.01429
  %25 = add nsw i32 %24, %.027
  %26 = sext i32 %25 to i64
  %27 = load ptr, ptr %12, align 8
  %28 = sdiv i32 %25, 64
  %.sext = sext i32 %28 to i64
  %29 = getelementptr inbounds i64, ptr %27, i64 %.sext
  %30 = and i64 %26, -9223372036854775745
  %31 = icmp ugt i64 %30, -9223372036854775808
  %storemerge.idx.i.i.i.i.i = select i1 %31, i64 -8, i64 0
  %storemerge.i.i.i.i.i = getelementptr inbounds i8, ptr %29, i64 %storemerge.idx.i.i.i.i.i
  %32 = and i64 %26, 63
  %33 = shl nuw i64 1, %32
  %34 = load i64, ptr %storemerge.i.i.i.i.i, align 8
  %35 = and i64 %34, %33
  %.not21 = icmp eq i64 %35, 0
  %36 = select i1 %.not21, i8 76, i8 82
  %37 = invoke noundef nonnull align 8 dereferenceable(32) ptr @_ZNSt7__cxx1112basic_stringIcSt11char_traitsIcESaIcEEpLEc(ptr noundef nonnull align 8 dereferenceable(32) %0, i8 noundef signext %36)
          to label %38 unwind label %.loopexit

38:                                               ; preds = %.invoke, %23
  %39 = add nuw nsw i32 %.027, 1
  %40 = load i32, ptr %3, align 4
  %.not16.not = icmp slt i32 %.027, %40
  br i1 %.not16.not, label %.lr.ph, label %._crit_edge, !llvm.loop !4

._crit_edge:                                      ; preds = %38, %.preheader
  %41 = invoke noundef nonnull align 8 dereferenceable(32) ptr @_ZNSt7__cxx1112basic_stringIcSt11char_traitsIcESaIcEEpLEPKc(ptr noundef nonnull align 8 dereferenceable(32) %0, ptr noundef nonnull @.str.23)
          to label %42 unwind label %.loopexit.split-lp.loopexit

42:                                               ; preds = %._crit_edge
  %43 = add nuw nsw i32 %.01429, 1
  %44 = load i32, ptr %3, align 4
  %.not.not = icmp slt i32 %.01429, %44
  br i1 %.not.not, label %.preheader, label %._crit_edge30, !llvm.loop !6

._crit_edge30:                                    ; preds = %42, %.preheader22
  ret void
}